Certificate:
    Data:
        Version: 3 (0x2)
        Serial Number: 1 (0x1)
        Signature Algorithm: ecdsa-with-SHA256
        Issuer: CN=TPM-PoC CA
        Validity
            Not Before: Jan  1 00:00:00 2020 GMT
            Not After : Jan  1 00:00:00 2030 GMT
        Subject: CN=zephyr
        Subject Public Key Info:
            Public Key Algorithm: id-ecPublicKey
                Public-Key: (256 bit)
                pub:
                    04:8f:a5:12:25:ed:c3:51:f3:95:a9:03:50:04:2d:
                    18:53:ec:48:43:dc:45:36:f5:bf:24:f6:ad:9d:c1:
                    16:cd:ea:55:da:7f:c6:17:be:6d:2b:4d:85:ad:1c:
                    cd:b9:89:a4:80:fa:85:2d:6f:a2:b0:23:3c:c3:26:
                    25:cc:9d:d2:b1
                ASN1 OID: prime256v1
                NIST CURVE: P-256
        X509v3 extensions:
            X509v3 Basic Constraints: 
                CA:FALSE
            Netscape Cert Type: 
                SSL Server
            X509v3 Subject Key Identifier: 
                69:D0:69:28:C6:80:72:1A:DB:68:7F:62:03:63:0E:29:D0:A8:E9:91
            X509v3 Authority Key Identifier: 
                keyid:31:66:E6:C5:6B:4C:6A:37:79:94:3D:3A:39:54:EA:A3:D9:D5:B2:0A

    Signature Algorithm: ecdsa-with-SHA256
         30:66:02:31:00:87:28:4f:fe:ae:ba:f5:2c:4b:25:f5:c0:6e:
         e7:73:87:ae:40:32:78:36:f6:08:62:f1:34:3b:96:15:96:b1:
         35:11:fe:e4:03:59:60:7b:e7:9e:fe:a5:3c:2a:04:5f:87:02:
         31:00:ba:b4:41:0f:b9:93:b4:77:4f:15:0d:ea:ee:3c:94:99:
         c4:a0:f0:b7:5a:6e:7b:9a:11:c5:da:e7:2e:ed:c3:86:a9:74:
         b9:db:20:19:8f:51:63:89:14:db:22:f0:7c:98
-----BEGIN CERTIFICATE-----
MIIBljCCARugAwIBAgIBATAKBggqhkjOPQQDAjAVMRMwEQYDVQQDDApUUE0tUG9D
IENBMB4XDTIwMDEwMTAwMDAwMFoXDTMwMDEwMTAwMDAwMFowETEPMA0GA1UEAwwG
emVwaHlyMFkwEwYHKoZIzj0CAQYIKoZIzj0DAQcDQgAEj6USJe3DUfOVqQNQBC0Y
U+xIQ9xFNvW/JPatncEWzepV2n/GF75tK02FrRzNuYmkgPqFLW+isCM8wyYlzJ3S
saNgMF4wCQYDVR0TBAIwADARBglghkgBhvhCAQEEBAMCBkAwHQYDVR0OBBYEFGnQ
aSjGgHIa22h/YgNjDinQqOmRMB8GA1UdIwQYMBaAFDFm5sVrTGo3eZQ9OjlU6qPZ
1bIKMAoGCCqGSM49BAMCA2kAMGYCMQCHKE/+rrr1LEsl9cBu53OHrkAyeDb2CGLx
NDuWFZaxNRH+5ANZYHvnnv6lPCoEX4cCMQC6tEEPuZO0d08VDeruPJSZxKDwt1pu
e5oRxdrnLu3Dhql0udsgGY9RY4kU2yLwfJg=
-----END CERTIFICATE-----
