Certificate:
    Data:
        Version: 3 (0x2)
        Serial Number: 0 (0x0)
        Signature Algorithm: ecdsa-with-SHA256
        Issuer: CN=TPM-PoC CA
        Validity
            Not Before: Jan  1 00:00:00 2020 GMT
            Not After : Jan  1 00:00:00 2030 GMT
        Subject: CN=TPM-PoC CA
        Subject Public Key Info:
            Public Key Algorithm: id-ecPublicKey
                Public-Key: (384 bit)
                pub:
                    04:3e:e2:df:17:c8:41:5a:fd:58:4b:a0:ad:f5:df:
                    0d:32:4d:ce:ac:0e:2e:a6:68:3d:a1:17:88:51:a8:
                    f4:9d:49:0e:41:eb:31:fb:49:02:fd:8a:5a:17:9b:
                    01:33:58:4b:d1:33:37:c8:5f:7d:cd:3f:7f:3f:9c:
                    bf:ca:ab:a5:f1:6a:bb:d2:7e:7a:81:a4:6b:1d:25:
                    41:2d:5d:45:1f:88:e3:45:fa:41:9d:1c:e3:e7:2e:
                    93:a0:86:a3:08:b2:56
                ASN1 OID: secp384r1
                NIST CURVE: P-384
        X509v3 extensions:
            X509v3 Subject Key Identifier: 
                31:66:E6:C5:6B:4C:6A:37:79:94:3D:3A:39:54:EA:A3:D9:D5:B2:0A
            X509v3 Authority Key Identifier: 
                keyid:31:66:E6:C5:6B:4C:6A:37:79:94:3D:3A:39:54:EA:A3:D9:D5:B2:0A

            X509v3 Basic Constraints: critical
                CA:TRUE
    Signature Algorithm: ecdsa-with-SHA256
         30:65:02:31:00:de:7f:d9:90:8c:47:bb:ee:ac:03:e2:40:69:
         1f:13:9a:3a:f7:26:02:96:61:d9:6d:01:c9:c9:91:79:69:f4:
         9f:e4:e2:61:71:ed:38:90:2a:d4:2a:dc:90:39:c8:18:7d:02:
         30:5a:ab:9d:f6:1e:ec:c8:fd:5e:d7:ba:d7:7c:82:bb:9d:fa:
         d1:76:ee:08:66:37:46:c8:87:20:bb:7a:cc:d8:2e:1b:06:ea:
         03:72:ac:59:6d:b4:a5:1e:26:43:9a:85:fa
-----BEGIN CERTIFICATE-----
MIIBqTCCAS+gAwIBAgIBADAKBggqhkjOPQQDAjAVMRMwEQYDVQQDDApUUE0tUG9D
IENBMB4XDTIwMDEwMTAwMDAwMFoXDTMwMDEwMTAwMDAwMFowFTETMBEGA1UEAwwK
VFBNLVBvQyBDQTB2MBAGByqGSM49AgEGBSuBBAAiA2IABD7i3xfIQVr9WEugrfXf
DTJNzqwOLqZoPaEXiFGo9J1JDkHrMftJAv2KWhebATNYS9EzN8hffc0/fz+cv8qr
pfFqu9J+eoGkax0lQS1dRR+I40X6QZ0c4+cuk6CGowiyVqNTMFEwHQYDVR0OBBYE
FDFm5sVrTGo3eZQ9OjlU6qPZ1bIKMB8GA1UdIwQYMBaAFDFm5sVrTGo3eZQ9OjlU
6qPZ1bIKMA8GA1UdEwEB/wQFMAMBAf8wCgYIKoZIzj0EAwIDaAAwZQIxAN5/2ZCM
R7vurAPiQGkfE5o69yYClmHZbQHJyZF5afSf5OJhce04kCrUKtyQOcgYfQIwWqud
9h7syP1e17rXfIK7nfrRdu4IZjdGyIcgu3rM2C4bBuoDcqxZbbSlHiZDmoX6
-----END CERTIFICATE-----
